; Function Attrs: mustprogress nounwind uwtable
define dso_local void @_ZN4node10StreamPipe16ReadableListener15OnStreamDestroyEv(ptr noundef nonnull align 8 dereferenceable(24) %this) unnamed_addr #3 align 2 {
entry:
  %ref.tmp3 = alloca %struct.uv_buf_t, align 8
  %0 = ptrtoint ptr %this to i64
  %sub.i.i = add i64 %0, -80
  %1 = inttoptr i64 %sub.i.i to ptr
  %source_destroyed_ = getelementptr inbounds i8, ptr %1, i64 64
  store i8 1, ptr %source_destroyed_, align 8
  %is_eof_ = getelementptr inbounds i8, ptr %1, i64 61
  %2 = load i8, ptr %is_eof_, align 1
  %3 = and i8 %2, 1
  %tobool.not = icmp eq i8 %3, 0
  br i1 %tobool.not, label %if.then, label %if.end

if.then:                                          ; preds = %entry
  %call4 = tail call { ptr, i64 } @uv_buf_init(ptr noundef null, i32 noundef 0) #12
  %4 = extractvalue { ptr, i64 } %call4, 0
  store ptr %4, ptr %ref.tmp3, align 8
  %5 = getelementptr inbounds i8, ptr %ref.tmp3, i64 8
  %6 = extractvalue { ptr, i64 } %call4, 1
  store i64 %6, ptr %5, align 8
  %vtable = load ptr, ptr %this, align 8
  %vfn = getelementptr inbounds i8, ptr %vtable, i64 24
  %7 = load ptr, ptr %vfn, align 8
  call void %7(ptr noundef nonnull align 8 dereferenceable(24) %this, i64 noundef -32, ptr noundef nonnull align 8 dereferenceable(16) %ref.tmp3) #12
  br label %if.end

if.end:                                           ; preds = %if.then, %entry
  ret void
}